target datalayout = "e-m:e-p270:32:32-p271:32:32-p272:64:64-i64:64-i128:128-f80:128-n8:16:32:64-S128"
target triple = "x86_64-pc-linux-gnu"

%struct.H5HF_dtable_t = type { %struct.H5HF_dtable_cparam_t, i64, i32, i32, i32, i32, i32, i32, i32, i64, ptr, ptr, ptr, ptr }
%struct.H5HF_dtable_cparam_t = type { i32, i64, i64, i32, i32 }

@H5HF_init_g = external global i8, align 1
@H5_libterm_g = external global i8, align 1

; Function Attrs: inlinehint nounwind willreturn memory(read) uwtable
define internal i32 @H5VM_log2_of2(i32 noundef %0) #3 {
  %2 = alloca i32, align 4
  store i32 %0, ptr %2, align 4, !tbaa !8
  %3 = load i32, ptr %2, align 4, !tbaa !8
  %4 = mul i32 %3, 125613361
  %5 = lshr i32 %4, 27
  %6 = zext i32 %5 to i64
  %7 = getelementptr inbounds nuw [32 x i32], ptr @MultiplyDeBruijnBitPosition, i64 0, i64 %6
  %8 = load i32, ptr %7, align 4, !tbaa !8
  ret i32 %8
}

; Function Attrs: nounwind uwtable
define i32 @H5HF__dtable_size_to_row(ptr noundef %0, i64 noundef %1) #0 {
  %3 = alloca ptr, align 8
  %4 = alloca i64, align 8
  %5 = alloca i32, align 4
  store ptr %0, ptr %3, align 8, !tbaa !3
  store i64 %1, ptr %4, align 8, !tbaa !30
  call void @llvm.lifetime.start.p0(i64 4, ptr %5) #7
  store i32 0, ptr %5, align 4, !tbaa !8
  %6 = load i8, ptr @H5HF_init_g, align 1, !tbaa !10, !range !12, !noundef !13
  %7 = trunc i8 %6 to i1
  br i1 %7, label %12, label %8

8:                                                ; preds = %2
  %9 = load i8, ptr @H5_libterm_g, align 1, !tbaa !10, !range !12, !noundef !13
  %10 = trunc i8 %9 to i1
  %11 = xor i1 %10, true
  br label %12

12:                                               ; preds = %8, %2
  %13 = phi i1 [ true, %2 ], [ %11, %8 ]
  %14 = xor i1 %13, true
  %15 = xor i1 %14, true
  %16 = zext i1 %15 to i32
  %17 = sext i32 %16 to i64
  %18 = call i64 @llvm.expect.i64(i64 %17, i64 1)
  %19 = icmp ne i64 %18, 0
  br i1 %19, label %20, label %41

20:                                               ; preds = %12
  %21 = load i64, ptr %4, align 8, !tbaa !30
  %22 = load ptr, ptr %3, align 8, !tbaa !3
  %23 = getelementptr inbounds nuw %struct.H5HF_dtable_t, ptr %22, i32 0, i32 0
  %24 = getelementptr inbounds nuw %struct.H5HF_dtable_cparam_t, ptr %23, i32 0, i32 1
  %25 = load i64, ptr %24, align 8, !tbaa !14
  %26 = icmp eq i64 %21, %25
  br i1 %26, label %27, label %28

27:                                               ; preds = %20
  store i32 0, ptr %5, align 4, !tbaa !8
  br label %40

28:                                               ; preds = %20
  %29 = load i64, ptr %4, align 8, !tbaa !30
  %30 = trunc i64 %29 to i32
  %31 = call i32 @H5VM_log2_of2(i32 noundef %30) #8
  %32 = load ptr, ptr %3, align 8, !tbaa !3
  %33 = getelementptr inbounds nuw %struct.H5HF_dtable_t, ptr %32, i32 0, i32 0
  %34 = getelementptr inbounds nuw %struct.H5HF_dtable_cparam_t, ptr %33, i32 0, i32 1
  %35 = load i64, ptr %34, align 8, !tbaa !14
  %36 = trunc i64 %35 to i32
  %37 = call i32 @H5VM_log2_of2(i32 noundef %36) #8
  %38 = sub i32 %31, %37
  %39 = add i32 %38, 1
  store i32 %39, ptr %5, align 4, !tbaa !8
  br label %40

40:                                               ; preds = %28, %27
  br label %41

41:                                               ; preds = %40, %12
  %42 = load i32, ptr %5, align 4, !tbaa !8
  call void @llvm.lifetime.end.p0(i64 4, ptr %5) #7
  ret i32 %42
}