; Function Attrs: mustprogress nofree norecurse nosync nounwind willreturn memory(read, inaccessiblemem: none) uwtable
define i32 @H5HF__dtable_size_to_row(ptr noundef readonly captures(none) %0, i64 noundef %1) local_unnamed_addr #4 {
  %3 = load i8, ptr @H5HF_init_g, align 1, !tbaa !3, !range !7, !noundef !8
  %4 = trunc nuw i8 %3 to i1
  %5 = load i8, ptr @H5_libterm_g, align 1, !range !7
  %6 = trunc nuw i8 %5 to i1
  %7 = xor i1 %6, true
  %8 = select i1 %4, i1 true, i1 %7
  br i1 %8, label %9, label %26, !prof !9

9:                                                ; preds = %2
  %10 = getelementptr inbounds nuw i8, ptr %0, i64 8
  %11 = load i64, ptr %10, align 8, !tbaa !10
  %12 = icmp eq i64 %1, %11
  br i1 %12, label %26, label %13

13:                                               ; preds = %9
  %14 = mul i64 %1, 125613361
  %15 = lshr i64 %14, 27
  %16 = and i64 %15, 31
  %17 = getelementptr inbounds nuw [32 x i32], ptr @MultiplyDeBruijnBitPosition, i64 0, i64 %16
  %18 = load i32, ptr %17, align 4, !tbaa !17
  %19 = mul i64 %11, 125613361
  %20 = lshr i64 %19, 27
  %21 = and i64 %20, 31
  %22 = getelementptr inbounds nuw [32 x i32], ptr @MultiplyDeBruijnBitPosition, i64 0, i64 %21
  %23 = load i32, ptr %22, align 4, !tbaa !17
  %24 = add i32 %18, 1
  %25 = sub i32 %24, %23
  br label %26

26:                                               ; preds = %9, %13, %2
  %.0 = phi i32 [ %25, %13 ], [ 0, %2 ], [ 0, %9 ]
  ret i32 %.0
}